target datalayout = "e-m:e-p270:32:32-p271:32:32-p272:64:64-i64:64-i128:128-f80:128-n8:16:32:64-S128"
target triple = "x86_64-unknown-linux-gnu"

%class.mpz = type { i32, i8, ptr }
%class.svector = type { %class.vector }
%class.vector = type { ptr }
%"struct.std::pair" = type { i32, i32 }
%"class.polynomial::power" = type { %"struct.std::pair" }
%"class.polynomial::monomial" = type { i32, i32, i32, i32, i32, [0 x %"class.polynomial::power"] }
%"class.polynomial::manager" = type { ptr }
%"struct.polynomial::manager::imp" = type { ptr, ptr, %class.mpzzp_manager, %"class.upolynomial::manager", ptr, %class.ptr_vector, %class.id_gen, ptr, ptr, %class.mpz, ptr, %"class.polynomial::monomial2pos", %"class.polynomial::tmp_monomial", %class.svector.1, %class.svector.1, %class.ptr_vector.4, %class.svector, i8, i8, %"class.polynomial::manager::imp::som_buffer", %"class.polynomial::manager::imp::som_buffer", %"class.polynomial::manager::imp::cheap_som_buffer", %"class.polynomial::manager::imp::cheap_som_buffer", %class.vector.6, %class.svector, %class.svector.7, %class.svector, %"class.polynomial::manager::imp::som_buffer_vector", %"class.polynomial::manager::imp::newton_interpolator_vector", %class.scoped_ptr_vector, %"class.polynomial::manager::imp::var_max_degree", %"struct.polynomial::manager::imp::var_pos", %"class.polynomial::manager::imp::som_buffer_vector" }
%class.mpzzp_manager = type { ptr, i8, %class.mpz, %class.mpz, %class.mpz, i8, %class.mpz, %class.mpz, %class.mpz, %class.mpz }
%"class.upolynomial::manager" = type { %"class.upolynomial::core_manager", %class.svector.1, %class.svector.1, %class.svector.1, %class.svector.1, %class.svector.1 }
%"class.upolynomial::core_manager" = type { ptr, %class.mpzzp_manager, %class.svector.1, %class.svector.1, %class.svector.1, %class.svector.1, %class.svector.1, %class.svector.1, %class.svector.1, [6 x %class.svector.1], %class.svector.1, %class.svector.1, %class.svector.1 }
%class.ptr_vector = type { %class.vector.3 }
%class.vector.3 = type { ptr }
%class.id_gen = type { i32, %class.svector }
%"class.polynomial::monomial2pos" = type { %class.svector }
%"class.polynomial::tmp_monomial" = type <{ ptr, i32, [4 x i8] }>
%class.svector.1 = type { %class.vector.2 }
%class.vector.2 = type { ptr }
%class.ptr_vector.4 = type { %class.vector.5 }
%class.vector.5 = type { ptr }
%"class.polynomial::manager::imp::som_buffer" = type { ptr, %"class.polynomial::monomial2pos", %class.svector.1, %class.ptr_vector.4 }
%"class.polynomial::manager::imp::cheap_som_buffer" = type { ptr, %class.svector.1, %class.ptr_vector.4 }
%class.vector.6 = type { ptr }
%class.svector.7 = type { %class.vector.8 }
%class.vector.8 = type { ptr }
%"class.polynomial::manager::imp::newton_interpolator_vector" = type { ptr, %class.ptr_vector.11 }
%class.ptr_vector.11 = type { %class.vector.12 }
%class.vector.12 = type { ptr }
%class.scoped_ptr_vector = type { %class.ptr_vector.13 }
%class.ptr_vector.13 = type { %class.vector.14 }
%class.vector.14 = type { ptr }
%"class.polynomial::manager::imp::var_max_degree" = type { %class.svector, %class.svector }
%"struct.polynomial::manager::imp::var_pos" = type { %class.svector }
%"class.polynomial::manager::imp::som_buffer_vector" = type { ptr, %class.ptr_vector.9 }
%class.ptr_vector.9 = type { %class.vector.10 }
%class.vector.10 = type { ptr }
%"class.polynomial::polynomial" = type { i32, i32, i32, ptr, ptr }

; Function Attrs: mustprogress nounwind uwtable
define linkonce_odr hidden noundef i32 @_ZN11mpz_managerILb0EE4signERK3mpz(ptr noundef nonnull align 8 dereferenceable(16) %a) #4 comdat align 2 {
entry:
  %a.addr = alloca ptr, align 8
  store ptr %a, ptr %a.addr, align 8
  %0 = load ptr, ptr %a.addr, align 8
  %m_val = getelementptr inbounds %class.mpz, ptr %0, i32 0, i32 0
  %1 = load i32, ptr %m_val, align 8
  ret i32 %1
}

; Function Attrs: mustprogress nounwind uwtable
define linkonce_odr hidden noundef i32 @_ZNK10polynomial5power6degreeEv(ptr noundef nonnull align 4 dereferenceable(8) %this) #4 comdat align 2 {
entry:
  %this.addr = alloca ptr, align 8
  store ptr %this, ptr %this.addr, align 8
  %this1 = load ptr, ptr %this.addr, align 8
  %second = getelementptr inbounds %"struct.std::pair", ptr %this1, i32 0, i32 1
  %0 = load i32, ptr %second, align 4
  ret i32 %0
}

; Function Attrs: mustprogress nounwind uwtable
define linkonce_odr hidden noundef nonnull align 4 dereferenceable(8) ptr @_ZNK10polynomial8monomial9get_powerEj(ptr noundef nonnull align 4 dereferenceable(20) %this, i32 noundef %idx) #4 comdat align 2 {
entry:
  %this.addr = alloca ptr, align 8
  %idx.addr = alloca i32, align 4
  store ptr %this, ptr %this.addr, align 8
  store i32 %idx, ptr %idx.addr, align 4
  %this1 = load ptr, ptr %this.addr, align 8
  %m_powers = getelementptr inbounds %"class.polynomial::monomial", ptr %this1, i32 0, i32 5
  %0 = load i32, ptr %idx.addr, align 4
  %idxprom = zext i32 %0 to i64
  %arrayidx = getelementptr inbounds [0 x %"class.polynomial::power"], ptr %m_powers, i64 0, i64 %idxprom
  ret ptr %arrayidx
}

; Function Attrs: mustprogress nounwind uwtable
define linkonce_odr hidden noundef zeroext i1 @_ZN11mpz_managerILb0EE6is_negERK3mpz(ptr noundef nonnull align 8 dereferenceable(16) %a) #4 comdat align 2 {
entry:
  %a.addr = alloca ptr, align 8
  store ptr %a, ptr %a.addr, align 8
  %0 = load ptr, ptr %a.addr, align 8
  %call = call noundef i32 @_ZN11mpz_managerILb0EE4signERK3mpz(ptr noundef nonnull align 8 dereferenceable(16) %0)
  %cmp = icmp slt i32 %call, 0
  ret i1 %cmp
}

; Function Attrs: mustprogress nounwind uwtable
define linkonce_odr hidden noundef i32 @_ZNK10polynomial8monomial6degreeEj(ptr noundef nonnull align 4 dereferenceable(20) %this, i32 noundef %idx) #4 comdat align 2 {
entry:
  %this.addr = alloca ptr, align 8
  %idx.addr = alloca i32, align 4
  store ptr %this, ptr %this.addr, align 8
  store i32 %idx, ptr %idx.addr, align 4
  %this1 = load ptr, ptr %this.addr, align 8
  %0 = load i32, ptr %idx.addr, align 4
  %call = call noundef nonnull align 4 dereferenceable(8) ptr @_ZNK10polynomial8monomial9get_powerEj(ptr noundef nonnull align 4 dereferenceable(20) %this1, i32 noundef %0)
  %call2 = call noundef i32 @_ZNK10polynomial5power6degreeEv(ptr noundef nonnull align 4 dereferenceable(8) %call)
  ret i32 %call2
}

; Function Attrs: mustprogress uwtable
define linkonce_odr hidden noundef zeroext i1 @_ZN13mpzzp_manager6is_negERK3mpz(ptr noundef nonnull align 8 dereferenceable(136) %this, ptr noundef nonnull align 8 dereferenceable(16) %a) #5 comdat align 2 {
entry:
  %this.addr = alloca ptr, align 8
  %a.addr = alloca ptr, align 8
  store ptr %this, ptr %this.addr, align 8
  store ptr %a, ptr %a.addr, align 8
  %0 = load ptr, ptr %a.addr, align 8
  %call = call noundef zeroext i1 @_ZN11mpz_managerILb0EE6is_negERK3mpz(ptr noundef nonnull align 8 dereferenceable(16) %0)
  ret i1 %call
}

; Function Attrs: mustprogress nounwind uwtable
define linkonce_odr hidden noundef nonnull align 8 dereferenceable(16) ptr @_ZNK10polynomial10polynomial1aEj(ptr noundef nonnull align 8 dereferenceable(32) %this, i32 noundef %idx) #4 comdat align 2 {
entry:
  %this.addr = alloca ptr, align 8
  %idx.addr = alloca i32, align 4
  store ptr %this, ptr %this.addr, align 8
  store i32 %idx, ptr %idx.addr, align 4
  %this1 = load ptr, ptr %this.addr, align 8
  %m_as = getelementptr inbounds %"class.polynomial::polynomial", ptr %this1, i32 0, i32 3
  %0 = load ptr, ptr %m_as, align 8
  %1 = load i32, ptr %idx.addr, align 4
  %idxprom = zext i32 %1 to i64
  %arrayidx = getelementptr inbounds %class.mpz, ptr %0, i64 %idxprom
  ret ptr %arrayidx
}

; Function Attrs: mustprogress nounwind uwtable
define linkonce_odr hidden noundef zeroext i1 @_ZNK10polynomial8monomial15is_power_of_twoEv(ptr noundef nonnull align 4 dereferenceable(20) %this) #4 comdat align 2 {
entry:
  %retval = alloca i1, align 1
  %this.addr = alloca ptr, align 8
  %i = alloca i32, align 4
  store ptr %this, ptr %this.addr, align 8
  %this1 = load ptr, ptr %this.addr, align 8
  store i32 0, ptr %i, align 4
  br label %for.cond

for.cond:                                         ; preds = %for.inc, %entry
  %0 = load i32, ptr %i, align 4
  %m_size = getelementptr inbounds %"class.polynomial::monomial", ptr %this1, i32 0, i32 3
  %1 = load i32, ptr %m_size, align 4
  %cmp = icmp ult i32 %0, %1
  br i1 %cmp, label %for.body, label %for.end

for.body:                                         ; preds = %for.cond
  %2 = load i32, ptr %i, align 4
  %call = call noundef i32 @_ZNK10polynomial8monomial6degreeEj(ptr noundef nonnull align 4 dereferenceable(20) %this1, i32 noundef %2)
  %rem = urem i32 %call, 2
  %cmp2 = icmp eq i32 %rem, 1
  br i1 %cmp2, label %if.then, label %if.end

if.then:                                          ; preds = %for.body
  store i1 false, ptr %retval, align 1
  br label %return

if.end:                                           ; preds = %for.body
  br label %for.inc

for.inc:                                          ; preds = %if.end
  %3 = load i32, ptr %i, align 4
  %inc = add i32 %3, 1
  store i32 %inc, ptr %i, align 4
  br label %for.cond, !llvm.loop !318

for.end:                                          ; preds = %for.cond
  store i1 true, ptr %retval, align 1
  br label %return

return:                                           ; preds = %for.end, %if.then
  %4 = load i1, ptr %retval, align 1
  ret i1 %4
}

; Function Attrs: mustprogress nounwind uwtable
define linkonce_odr hidden noundef ptr @_ZNK10polynomial10polynomial1mEj(ptr noundef nonnull align 8 dereferenceable(32) %this, i32 noundef %idx) #4 comdat align 2 {
entry:
  %this.addr = alloca ptr, align 8
  %idx.addr = alloca i32, align 4
  store ptr %this, ptr %this.addr, align 8
  store i32 %idx, ptr %idx.addr, align 4
  %this1 = load ptr, ptr %this.addr, align 8
  %m_ms = getelementptr inbounds %"class.polynomial::polynomial", ptr %this1, i32 0, i32 4
  %0 = load ptr, ptr %m_ms, align 8
  %1 = load i32, ptr %idx.addr, align 4
  %idxprom = zext i32 %1 to i64
  %arrayidx = getelementptr inbounds ptr, ptr %0, i64 %idxprom
  %2 = load ptr, ptr %arrayidx, align 8
  ret ptr %2
}

; Function Attrs: mustprogress nounwind uwtable
define linkonce_odr hidden noundef i32 @_ZNK10polynomial10polynomial4sizeEv(ptr noundef nonnull align 8 dereferenceable(32) %this) #4 comdat align 2 {
entry:
  %this.addr = alloca ptr, align 8
  store ptr %this, ptr %this.addr, align 8
  %this1 = load ptr, ptr %this.addr, align 8
  %m_size = getelementptr inbounds %"class.polynomial::polynomial", ptr %this1, i32 0, i32 2
  %0 = load i32, ptr %m_size, align 8
  ret i32 %0
}

; Function Attrs: mustprogress uwtable
define linkonce_odr hidden noundef zeroext i1 @_ZN10polynomial7manager3imp9is_nonposEPKNS_10polynomialE(ptr noundef nonnull align 8 dereferenceable(824) %this, ptr noundef %p) #5 comdat align 2 {
entry:
  %retval = alloca i1, align 1
  %this.addr = alloca ptr, align 8
  %p.addr = alloca ptr, align 8
  %sz = alloca i32, align 4
  %i = alloca i32, align 4
  store ptr %this, ptr %this.addr, align 8
  store ptr %p, ptr %p.addr, align 8
  %this1 = load ptr, ptr %this.addr, align 8
  %0 = load ptr, ptr %p.addr, align 8
  %call = call noundef i32 @_ZNK10polynomial10polynomial4sizeEv(ptr noundef nonnull align 8 dereferenceable(32) %0)
  store i32 %call, ptr %sz, align 4
  store i32 0, ptr %i, align 4
  br label %for.cond

for.cond:                                         ; preds = %for.inc, %entry
  %1 = load i32, ptr %i, align 4
  %2 = load i32, ptr %sz, align 4
  %cmp = icmp ult i32 %1, %2
  br i1 %cmp, label %for.body, label %for.end

for.body:                                         ; preds = %for.cond
  %3 = load ptr, ptr %p.addr, align 8
  %4 = load i32, ptr %i, align 4
  %call2 = call noundef ptr @_ZNK10polynomial10polynomial1mEj(ptr noundef nonnull align 8 dereferenceable(32) %3, i32 noundef %4)
  %call3 = call noundef zeroext i1 @_ZNK10polynomial8monomial15is_power_of_twoEv(ptr noundef nonnull align 4 dereferenceable(20) %call2)
  br i1 %call3, label %if.end, label %if.then

if.then:                                          ; preds = %for.body
  store i1 false, ptr %retval, align 1
  br label %return

if.end:                                           ; preds = %for.body
  %m_manager = getelementptr inbounds %"struct.polynomial::manager::imp", ptr %this1, i32 0, i32 2
  %5 = load ptr, ptr %p.addr, align 8
  %6 = load i32, ptr %i, align 4
  %call4 = call noundef nonnull align 8 dereferenceable(16) ptr @_ZNK10polynomial10polynomial1aEj(ptr noundef nonnull align 8 dereferenceable(32) %5, i32 noundef %6)
  %call5 = call noundef zeroext i1 @_ZN13mpzzp_manager6is_negERK3mpz(ptr noundef nonnull align 8 dereferenceable(136) %m_manager, ptr noundef nonnull align 8 dereferenceable(16) %call4)
  br i1 %call5, label %if.end7, label %if.then6

if.then6:                                         ; preds = %if.end
  store i1 false, ptr %retval, align 1
  br label %return

if.end7:                                          ; preds = %if.end
  br label %for.inc

for.inc:                                          ; preds = %if.end7
  %7 = load i32, ptr %i, align 4
  %inc = add i32 %7, 1
  store i32 %inc, ptr %i, align 4
  br label %for.cond, !llvm.loop !63

for.end:                                          ; preds = %for.cond
  store i1 true, ptr %retval, align 1
  br label %return

return:                                           ; preds = %for.end, %if.then6, %if.then
  %8 = load i1, ptr %retval, align 1
  ret i1 %8
}

; Function Attrs: mustprogress uwtable
define hidden noundef zeroext i1 @_ZN10polynomial7manager9is_nonposEPKNS_10polynomialE(ptr noundef nonnull align 8 dereferenceable(8) %this, ptr noundef %p) #5 align 2 {
entry:
  %this.addr = alloca ptr, align 8
  %p.addr = alloca ptr, align 8
  store ptr %this, ptr %this.addr, align 8
  store ptr %p, ptr %p.addr, align 8
  %this1 = load ptr, ptr %this.addr, align 8
  %m_imp = getelementptr inbounds %"class.polynomial::manager", ptr %this1, i32 0, i32 0
  %0 = load ptr, ptr %m_imp, align 8
  %1 = load ptr, ptr %p.addr, align 8
  %call = call noundef zeroext i1 @_ZN10polynomial7manager3imp9is_nonposEPKNS_10polynomialE(ptr noundef nonnull align 8 dereferenceable(824) %0, ptr noundef %1)
  ret i1 %call
}