; Function Attrs: mustprogress nofree norecurse nosync nounwind willreturn memory(read, inaccessiblemem: none) uwtable
define hidden noundef zeroext i1 @_ZN10polynomial7manager9is_nonposEPKNS_10polynomialE(ptr nocapture noundef nonnull readonly align 8 dereferenceable(8) %this, ptr nocapture noundef readonly %p) local_unnamed_addr #7 align 2 {
entry:
  %m_size.i.i = getelementptr inbounds i8, ptr %p, i64 8
  %0 = load i32, ptr %m_size.i.i, align 8
  %cmp15.i = icmp eq i32 %0, 0
  br i1 %cmp15.i, label %_ZN10polynomial7manager3imp9is_nonposEPKNS_10polynomialE.exit, label %for.body.lr.ph.i

for.body.lr.ph.i:                                 ; preds = %entry
  %m_ms.i.i = getelementptr inbounds i8, ptr %p, i64 24
  %1 = load ptr, ptr %m_ms.i.i, align 8
  %m_as.i.i = getelementptr inbounds i8, ptr %p, i64 16
  %2 = zext i32 %0 to i64
  br label %for.body.i

for.cond.i:                                       ; preds = %if.end.i
  %indvars.iv.next = add nuw nsw i64 %indvars.iv, 1
  %cmp.i = icmp uge i64 %indvars.iv.next, %2
  %exitcond.i = icmp eq i64 %indvars.iv.next, %2
  br i1 %exitcond.i, label %_ZN10polynomial7manager3imp9is_nonposEPKNS_10polynomialE.exit, label %for.body.i, !llvm.loop !84

for.body.i:                                       ; preds = %for.cond.i, %for.body.lr.ph.i
  %indvars.iv = phi i64 [ %indvars.iv.next, %for.cond.i ], [ 0, %for.body.lr.ph.i ]
  %cmp17.i = phi i1 [ %cmp.i, %for.cond.i ], [ false, %for.body.lr.ph.i ]
  %arrayidx.i.i = getelementptr inbounds ptr, ptr %1, i64 %indvars.iv
  %3 = load ptr, ptr %arrayidx.i.i, align 8
  %m_powers.i.i.i.i = getelementptr inbounds i8, ptr %3, i64 20
  %m_size.i6.i = getelementptr inbounds i8, ptr %3, i64 12
  %4 = load i32, ptr %m_size.i6.i, align 4
  %cmp3.i.i = icmp eq i32 %4, 0
  br i1 %cmp3.i.i, label %if.end.i, label %for.body.preheader.i.i

for.body.preheader.i.i:                           ; preds = %for.body.i
  %5 = zext i32 %4 to i64
  %second.i.i.i10.i = getelementptr inbounds i8, ptr %3, i64 24
  %6 = load i32, ptr %second.i.i.i10.i, align 4
  %rem.i11.i = and i32 %6, 1
  %cmp2.not.i12.i = icmp eq i32 %rem.i11.i, 0
  br i1 %cmp2.not.i12.i, label %for.cond.i.i, label %_ZN10polynomial7manager3imp9is_nonposEPKNS_10polynomialE.exit

for.cond.i.i:                                     ; preds = %for.body.preheader.i.i, %for.body.i.i
  %indvars.iv.i13.i = phi i64 [ %indvars.iv.next.i.i, %for.body.i.i ], [ 0, %for.body.preheader.i.i ]
  %indvars.iv.next.i.i = add nuw nsw i64 %indvars.iv.i13.i, 1
  %exitcond.i.i = icmp eq i64 %indvars.iv.next.i.i, %5
  br i1 %exitcond.i.i, label %if.end.i, label %for.body.i.i, !llvm.loop !81

for.body.i.i:                                     ; preds = %for.cond.i.i
  %second.i.i.i.i = getelementptr inbounds [0 x %"class.polynomial::power"], ptr %m_powers.i.i.i.i, i64 0, i64 %indvars.iv.next.i.i, i32 0, i32 1
  %7 = load i32, ptr %second.i.i.i.i, align 4
  %rem.i.i = and i32 %7, 1
  %cmp2.not.i.i = icmp eq i32 %rem.i.i, 0
  br i1 %cmp2.not.i.i, label %for.cond.i.i, label %_ZNK10polynomial8monomial15is_power_of_twoEv.exit.i, !llvm.loop !81

_ZNK10polynomial8monomial15is_power_of_twoEv.exit.i: ; preds = %for.body.i.i
  %cmp.i.not.le.i = icmp ult i64 %indvars.iv.next.i.i, %5
  br i1 %cmp.i.not.le.i, label %_ZN10polynomial7manager3imp9is_nonposEPKNS_10polynomialE.exit, label %if.end.i

if.end.i:                                         ; preds = %for.cond.i.i, %_ZNK10polynomial8monomial15is_power_of_twoEv.exit.i, %for.body.i
  %8 = load ptr, ptr %m_as.i.i, align 8
  %arrayidx.i8.i = getelementptr inbounds %class.mpz, ptr %8, i64 %indvars.iv
  %9 = load i32, ptr %arrayidx.i8.i, align 8
  %cmp.i.i.i = icmp slt i32 %9, 0
  br i1 %cmp.i.i.i, label %for.cond.i, label %_ZN10polynomial7manager3imp9is_nonposEPKNS_10polynomialE.exit

_ZN10polynomial7manager3imp9is_nonposEPKNS_10polynomialE.exit: ; preds = %for.cond.i, %for.body.preheader.i.i, %_ZNK10polynomial8monomial15is_power_of_twoEv.exit.i, %if.end.i, %entry
  %cmp.lcssa.i = phi i1 [ true, %entry ], [ %cmp17.i, %for.body.preheader.i.i ], [ %cmp17.i, %_ZNK10polynomial8monomial15is_power_of_twoEv.exit.i ], [ %cmp17.i, %if.end.i ], [ %cmp.i, %for.cond.i ]
  ret i1 %cmp.lcssa.i
}